target datalayout = "e-m:e-p270:32:32-p271:32:32-p272:64:64-i64:64-i128:128-f80:128-n8:16:32:64-S128"
target triple = "x86_64-pc-linux-gnu"

%"class.clang::Decl" = type <{ ptr, %"class.llvm::PointerIntPair", %"class.llvm::PointerUnion", %"class.clang::SourceLocation", i32, i8, [7 x i8] }>
%"class.llvm::PointerIntPair" = type { %"struct.llvm::detail::PunnedPointer" }
%"struct.llvm::detail::PunnedPointer" = type { [8 x i8] }
%"class.llvm::PointerUnion" = type { %"class.llvm::pointer_union_detail::PointerUnionMembers" }
%"class.llvm::pointer_union_detail::PointerUnionMembers" = type { %"class.llvm::pointer_union_detail::PointerUnionMembers.0" }
%"class.llvm::pointer_union_detail::PointerUnionMembers.0" = type { %"class.llvm::pointer_union_detail::PointerUnionMembers.1" }
%"class.llvm::pointer_union_detail::PointerUnionMembers.1" = type { %"class.llvm::PointerIntPair.2" }
%"class.llvm::PointerIntPair.2" = type { %"struct.llvm::detail::PunnedPointer.3" }
%"struct.llvm::detail::PunnedPointer.3" = type { [8 x i8] }
%"class.clang::SourceLocation" = type { i32 }

; Function Attrs: mustprogress nounwind uwtable
define linkonce_odr hidden noundef nonnull align 8 dereferenceable(48) ptr @_ZN4llvm11SmallVectorIPN5clang4AttrELj4EEaSERKS4_(ptr noundef nonnull align 8 dereferenceable(48) %0, ptr noundef nonnull align 8 dereferenceable(48) %1) #0 comdat align 2 {
  %3 = alloca ptr, align 8
  %4 = alloca ptr, align 8
  store ptr %0, ptr %3, align 8
  store ptr %1, ptr %4, align 8
  %5 = load ptr, ptr %3, align 8
  %6 = load ptr, ptr %4, align 8
  %7 = call noundef nonnull align 8 dereferenceable(16) ptr @_ZN4llvm15SmallVectorImplIPN5clang4AttrEEaSERKS4_(ptr noundef nonnull align 8 dereferenceable(16) %5, ptr noundef nonnull align 8 dereferenceable(16) %6)
  ret ptr %5
}

; Function Attrs: mustprogress nounwind uwtable
define dso_local void @_ZN5clang4Decl12setAttrsImplERKN4llvm11SmallVectorIPNS_4AttrELj4EEERNS_10ASTContextE(ptr noundef nonnull align 8 dereferenceable(33) %0, ptr noundef nonnull align 8 dereferenceable(48) %1, ptr noundef nonnull align 8 dereferenceable(23096) %2) #0 align 2 {
  %4 = alloca ptr, align 8
  %5 = alloca ptr, align 8
  %6 = alloca ptr, align 8
  %7 = alloca ptr, align 8
  store ptr %0, ptr %4, align 8
  store ptr %1, ptr %5, align 8
  store ptr %2, ptr %6, align 8
  %8 = load ptr, ptr %4, align 8
  %9 = load ptr, ptr %6, align 8
  %10 = call noundef nonnull align 8 dereferenceable(48) ptr @_ZN5clang10ASTContext12getDeclAttrsEPKNS_4DeclE(ptr noundef nonnull align 8 dereferenceable(23096) %9, ptr noundef %8)
  store ptr %10, ptr %7, align 8
  %11 = load ptr, ptr %5, align 8
  %12 = load ptr, ptr %7, align 8
  %13 = call noundef nonnull align 8 dereferenceable(48) ptr @_ZN4llvm11SmallVectorIPN5clang4AttrELj4EEaSERKS4_(ptr noundef nonnull align 8 dereferenceable(48) %12, ptr noundef nonnull align 8 dereferenceable(48) %11)
  %14 = getelementptr inbounds nuw %"class.clang::Decl", ptr %8, i32 0, i32 4
  %15 = load i32, ptr %14, align 4
  %16 = and i32 %15, -257
  %17 = or i32 %16, 256
  store i32 %17, ptr %14, align 4
  ret void
}