; Function Attrs: mustprogress nounwind uwtable
define dso_local void @_ZN5clang4Decl12setAttrsImplERKN4llvm11SmallVectorIPNS_4AttrELj4EEERNS_10ASTContextE(ptr noundef nonnull align 8 dereferenceable(33) %0, ptr noundef nonnull align 8 dereferenceable(48) %1, ptr noundef nonnull align 8 dereferenceable(23096) %2) local_unnamed_addr #0 align 2 {
  %4 = tail call noundef nonnull align 8 dereferenceable(48) ptr @_ZN5clang10ASTContext12getDeclAttrsEPKNS_4DeclE(ptr noundef nonnull align 8 dereferenceable(23096) %2, ptr noundef nonnull %0) #27
  %5 = tail call noundef nonnull align 8 dereferenceable(16) ptr @_ZN4llvm15SmallVectorImplIPN5clang4AttrEEaSERKS4_(ptr noundef nonnull align 8 dereferenceable(16) %4, ptr noundef nonnull align 8 dereferenceable(16) %1)
  %6 = getelementptr inbounds nuw i8, ptr %0, i64 28
  %7 = load i32, ptr %6, align 4
  %8 = or i32 %7, 256
  store i32 %8, ptr %6, align 4
  ret void
}